; Function Attrs: mustprogress nounwind uwtable
define internal fastcc void @_ZNSt6vectorIN12_GLOBAL__N_112RdPortConfigESaIS1_EED2Ev(ptr noundef nonnull readonly align 8 captures(none) dereferenceable(24) %0) unnamed_addr #6 align 2 personality ptr @__gxx_personality_v0 {
  %2 = load ptr, ptr %0, align 8, !tbaa !378
  %3 = getelementptr inbounds nuw i8, ptr %0, i64 8
  %4 = load ptr, ptr %3, align 8, !tbaa !379
  %.not5.i.i.i = icmp eq ptr %2, %4
  br i1 %.not5.i.i.i, label %_ZSt8_DestroyIPN12_GLOBAL__N_112RdPortConfigES1_EvT_S3_RSaIT0_E.exit, label %.lr.ph.i.i.i

.lr.ph.i.i.i:                                     ; preds = %1, %_ZSt8_DestroyIN12_GLOBAL__N_112RdPortConfigEEvPT_.exit.i.i.i
  %.06.i.i.i = phi ptr [ %11, %_ZSt8_DestroyIN12_GLOBAL__N_112RdPortConfigEEvPT_.exit.i.i.i ], [ %2, %1 ]
  %5 = getelementptr i8, ptr %.06.i.i.i, i64 32
  %.0.val.i.i.i = load ptr, ptr %5, align 8, !tbaa !60
  %.not.i.i.i.i.i.i.i.i = icmp eq ptr %.0.val.i.i.i, null
  br i1 %.not.i.i.i.i.i.i.i.i, label %_ZSt8_DestroyIN12_GLOBAL__N_112RdPortConfigEEvPT_.exit.i.i.i, label %6

6:                                                ; preds = %.lr.ph.i.i.i
  %7 = getelementptr i8, ptr %.06.i.i.i, i64 48
  %.0.val4.i.i.i = load ptr, ptr %7, align 8
  %8 = ptrtoint ptr %.0.val4.i.i.i to i64
  %9 = ptrtoint ptr %.0.val.i.i.i to i64
  %10 = sub i64 %8, %9
  tail call void @_ZdlPvm(ptr noundef nonnull %.0.val.i.i.i, i64 noundef %10) #31
  br label %_ZSt8_DestroyIN12_GLOBAL__N_112RdPortConfigEEvPT_.exit.i.i.i

_ZSt8_DestroyIN12_GLOBAL__N_112RdPortConfigEEvPT_.exit.i.i.i: ; preds = %6, %.lr.ph.i.i.i
  %11 = getelementptr inbounds nuw i8, ptr %.06.i.i.i, i64 56
  %.not.i.i.i = icmp eq ptr %11, %4
  br i1 %.not.i.i.i, label %_ZSt8_DestroyIPN12_GLOBAL__N_112RdPortConfigES1_EvT_S3_RSaIT0_E.exitthread-pre-split, label %.lr.ph.i.i.i, !llvm.loop !380

_ZSt8_DestroyIPN12_GLOBAL__N_112RdPortConfigES1_EvT_S3_RSaIT0_E.exitthread-pre-split: ; preds = %_ZSt8_DestroyIN12_GLOBAL__N_112RdPortConfigEEvPT_.exit.i.i.i
  %.val.pr = load ptr, ptr %0, align 8, !tbaa !378
  br label %_ZSt8_DestroyIPN12_GLOBAL__N_112RdPortConfigES1_EvT_S3_RSaIT0_E.exit

_ZSt8_DestroyIPN12_GLOBAL__N_112RdPortConfigES1_EvT_S3_RSaIT0_E.exit: ; preds = %_ZSt8_DestroyIPN12_GLOBAL__N_112RdPortConfigES1_EvT_S3_RSaIT0_E.exitthread-pre-split, %1
  %.val = phi ptr [ %.val.pr, %_ZSt8_DestroyIPN12_GLOBAL__N_112RdPortConfigES1_EvT_S3_RSaIT0_E.exitthread-pre-split ], [ %2, %1 ]
  %.not.i.i = icmp eq ptr %.val, null
  br i1 %.not.i.i, label %_ZNSt12_Vector_baseIN12_GLOBAL__N_112RdPortConfigESaIS1_EED2Ev.exit, label %12

12:                                               ; preds = %_ZSt8_DestroyIPN12_GLOBAL__N_112RdPortConfigES1_EvT_S3_RSaIT0_E.exit
  %13 = getelementptr inbounds nuw i8, ptr %0, i64 16
  %.val1 = load ptr, ptr %13, align 8, !tbaa !381
  %14 = ptrtoint ptr %.val1 to i64
  %15 = ptrtoint ptr %.val to i64
  %16 = sub i64 %14, %15
  tail call void @_ZdlPvm(ptr noundef nonnull %.val, i64 noundef %16) #31
  br label %_ZNSt12_Vector_baseIN12_GLOBAL__N_112RdPortConfigESaIS1_EED2Ev.exit

_ZNSt12_Vector_baseIN12_GLOBAL__N_112RdPortConfigESaIS1_EED2Ev.exit: ; preds = %_ZSt8_DestroyIPN12_GLOBAL__N_112RdPortConfigES1_EvT_S3_RSaIT0_E.exit, %12
  ret void
}